target datalayout = "e-m:e-p270:32:32-p271:32:32-p272:64:64-i64:64-i128:128-f80:128-n8:16:32:64-S128"
target triple = "x86_64-pc-linux-gnu"

; Function Attrs: inlinehint mustprogress nounwind uwtable
define internal noundef signext i8 @_ZL9U_FAILURE10UErrorCode(i32 noundef %0) #4 {
  %2 = alloca i32, align 4
  store i32 %0, ptr %2, align 4, !tbaa !19
  %3 = load i32, ptr %2, align 4, !tbaa !19
  %4 = icmp sgt i32 %3, 0
  %5 = zext i1 %4 to i8
  ret i8 %5
}

; Function Attrs: mustprogress uwtable
define internal noundef i32 @_ZN6icu_7712_GLOBAL__N_110yearLengthEiR10UErrorCode(i32 noundef %0, ptr noundef nonnull align 4 dereferenceable(4) %1) #1 {
  %3 = alloca i32, align 4
  %4 = alloca i32, align 4
  %5 = alloca ptr, align 8
  %6 = alloca i32, align 4
  %7 = alloca i32, align 4
  %8 = alloca i32, align 4
  store i32 %0, ptr %4, align 4, !tbaa !17
  store ptr %1, ptr %5, align 8, !tbaa !12
  call void @llvm.lifetime.start.p0(i64 4, ptr %6) #8
  %9 = load i32, ptr %4, align 4, !tbaa !17
  %10 = sub nsw i32 %9, 1
  %11 = mul nsw i32 12, %10
  store i32 %11, ptr %6, align 4, !tbaa !17
  call void @llvm.lifetime.start.p0(i64 4, ptr %7) #8
  %12 = load i32, ptr %6, align 4, !tbaa !17
  %13 = add nsw i32 %12, 12
  %14 = load ptr, ptr %5, align 8, !tbaa !12
  %15 = call noundef i32 @_ZN6icu_7712_GLOBAL__N_114trueMonthStartEiR10UErrorCode(i32 noundef %13, ptr noundef nonnull align 4 dereferenceable(4) %14)
  %16 = load i32, ptr %6, align 4, !tbaa !17
  %17 = load ptr, ptr %5, align 8, !tbaa !12
  %18 = call noundef i32 @_ZN6icu_7712_GLOBAL__N_114trueMonthStartEiR10UErrorCode(i32 noundef %16, ptr noundef nonnull align 4 dereferenceable(4) %17)
  %19 = sub nsw i32 %15, %18
  store i32 %19, ptr %7, align 4, !tbaa !17
  %20 = load ptr, ptr %5, align 8, !tbaa !12
  %21 = load i32, ptr %20, align 4, !tbaa !19
  %22 = call noundef signext i8 @_ZL9U_FAILURE10UErrorCode(i32 noundef %21)
  %23 = icmp ne i8 %22, 0
  br i1 %23, label %24, label %25

24:                                               ; preds = %2
  store i32 0, ptr %3, align 4
  store i32 1, ptr %8, align 4
  br label %27

25:                                               ; preds = %2
  %26 = load i32, ptr %7, align 4, !tbaa !17
  store i32 %26, ptr %3, align 4
  store i32 1, ptr %8, align 4
  br label %27

27:                                               ; preds = %25, %24
  call void @llvm.lifetime.end.p0(i64 4, ptr %7) #8
  call void @llvm.lifetime.end.p0(i64 4, ptr %6) #8
  %28 = load i32, ptr %3, align 4
  ret i32 %28
}

; Function Attrs: mustprogress uwtable
define noundef i32 @_ZNK6icu_7715IslamicCalendar19handleGetYearLengthEiR10UErrorCode(ptr noundef nonnull align 8 dereferenceable(192) %0, i32 noundef %1, ptr noundef nonnull align 4 dereferenceable(4) %2) unnamed_addr #1 align 2 {
  %4 = alloca ptr, align 8
  %5 = alloca i32, align 4
  %6 = alloca ptr, align 8
  store ptr %0, ptr %4, align 8, !tbaa !3
  store i32 %1, ptr %5, align 4, !tbaa !17
  store ptr %2, ptr %6, align 8, !tbaa !12
  %7 = load i32, ptr %5, align 4, !tbaa !17
  %8 = load ptr, ptr %6, align 8, !tbaa !12
  %9 = call noundef i32 @_ZN6icu_7712_GLOBAL__N_110yearLengthEiR10UErrorCode(i32 noundef %7, ptr noundef nonnull align 4 dereferenceable(4) %8)
  ret i32 %9
}