; Function Attrs: mustprogress uwtable
define noundef i32 @_ZNK6icu_7715IslamicCalendar19handleGetYearLengthEiR10UErrorCode(ptr nonnull readnone align 8 captures(none) %0, i32 noundef %1, ptr noundef nonnull align 4 dereferenceable(4) %2) unnamed_addr #1 align 2 {
  %4 = mul i32 %1, 12
  %5 = add i32 %4, -12
  %6 = tail call fastcc noundef i32 @_ZN6icu_7712_GLOBAL__N_114trueMonthStartEiR10UErrorCode(i32 noundef %4, ptr noundef nonnull align 4 dereferenceable(4) %2)
  %7 = tail call fastcc noundef i32 @_ZN6icu_7712_GLOBAL__N_114trueMonthStartEiR10UErrorCode(i32 noundef %5, ptr noundef nonnull align 4 dereferenceable(4) %2)
  %8 = load i32, ptr %2, align 4, !tbaa !9
  %9 = sub nsw i32 %6, %7
  %.inv.i = icmp sgt i32 %8, 0
  %.0.i = select i1 %.inv.i, i32 0, i32 %9
  ret i32 %.0.i
}